; Function Attrs: mustprogress uwtable
define noundef double @_ZN2cv8ximgproc14ContourFitting13newtonRaphsonEdd(ptr noundef nonnull readonly align 8 captures(none) dereferenceable(136) %0, double noundef %1, double noundef %2) local_unnamed_addr #3 align 2 personality ptr @__gxx_personality_v0 {
  %4 = alloca double, align 8
  %5 = alloca double, align 8
  %6 = alloca %"class.std::__cxx11::basic_string", align 8
  %7 = alloca %"class.std::allocator", align 1
  call void @llvm.lifetime.start.p0(i64 8, ptr nonnull %4) #22
  call void @llvm.lifetime.start.p0(i64 8, ptr nonnull %5) #22
  call void @_ZN2cv8ximgproc14ContourFitting6fAlphaEdRdS2_(ptr noundef nonnull align 8 dereferenceable(136) %0, double noundef %1, ptr noundef nonnull align 8 dereferenceable(8) %4, ptr noundef nonnull align 8 dereferenceable(8) %5)
  %8 = load double, ptr %4, align 8, !tbaa !29
  %9 = fcmp olt double %8, 0.000000e+00
  br i1 %9, label %10, label %11

10:                                               ; preds = %3
  call void @_ZN2cv8ximgproc14ContourFitting6fAlphaEdRdS2_(ptr noundef nonnull align 8 dereferenceable(136) %0, double noundef %2, ptr noundef nonnull align 8 dereferenceable(8) %4, ptr noundef nonnull align 8 dereferenceable(8) %5)
  %.pr = load double, ptr %4, align 8, !tbaa !29
  br label %11

11:                                               ; preds = %3, %10
  %12 = phi double [ %8, %3 ], [ %.pr, %10 ]
  %.018 = phi double [ %1, %3 ], [ %2, %10 ]
  %13 = fcmp ult double %12, 0.000000e+00
  br i1 %13, label %14, label %24

14:                                               ; preds = %11
  call void @llvm.lifetime.start.p0(i64 32, ptr nonnull %6) #22
  call void @llvm.lifetime.start.p0(i64 1, ptr nonnull %7) #22
  call void @_ZNSt7__cxx1112basic_stringIcSt11char_traitsIcESaIcEEC2EPKcRKS3_(ptr noundef nonnull align 8 dereferenceable(32) %6, ptr noundef nonnull @.str.2, ptr noundef nonnull align 1 dereferenceable(1) %7)
  invoke void @_ZN2cv5errorEiRKNSt7__cxx1112basic_stringIcSt11char_traitsIcESaIcEEEPKcS9_i(i32 noundef -215, ptr noundef nonnull align 8 dereferenceable(32) %6, ptr noundef nonnull @__func__._ZN2cv8ximgproc14ContourFitting13newtonRaphsonEdd, ptr noundef nonnull @.str.1, i32 noundef 89) #23
          to label %15 unwind label %16

15:                                               ; preds = %14
  unreachable

16:                                               ; preds = %14
  %17 = landingpad { ptr, i32 }
          cleanup
  %18 = load ptr, ptr %6, align 8, !tbaa !3
  %19 = getelementptr inbounds nuw i8, ptr %6, i64 16
  %20 = icmp eq ptr %18, %19
  br i1 %20, label %_ZNKSt7__cxx1112basic_stringIcSt11char_traitsIcESaIcEE11_M_is_localEv.exit.thread.i.i, label %_ZNKSt7__cxx1112basic_stringIcSt11char_traitsIcESaIcEE11_M_is_localEv.exit.i.i

_ZNKSt7__cxx1112basic_stringIcSt11char_traitsIcESaIcEE11_M_is_localEv.exit.thread.i.i: ; preds = %16
  %21 = getelementptr inbounds nuw i8, ptr %6, i64 8
  %22 = load i64, ptr %21, align 8, !tbaa !11
  %23 = icmp ult i64 %22, 16
  call void @llvm.assume(i1 %23)
  br label %_ZNSt7__cxx1112basic_stringIcSt11char_traitsIcESaIcEED2Ev.exit

_ZNKSt7__cxx1112basic_stringIcSt11char_traitsIcESaIcEE11_M_is_localEv.exit.i.i: ; preds = %16
  call void @_ZdlPv(ptr noundef %18) #24
  br label %_ZNSt7__cxx1112basic_stringIcSt11char_traitsIcESaIcEED2Ev.exit

_ZNSt7__cxx1112basic_stringIcSt11char_traitsIcESaIcEED2Ev.exit: ; preds = %_ZNKSt7__cxx1112basic_stringIcSt11char_traitsIcESaIcEE11_M_is_localEv.exit.i.i, %_ZNKSt7__cxx1112basic_stringIcSt11char_traitsIcESaIcEE11_M_is_localEv.exit.thread.i.i
  call void @llvm.lifetime.end.p0(i64 1, ptr nonnull %7) #22
  call void @llvm.lifetime.end.p0(i64 32, ptr nonnull %6) #22
  call void @llvm.lifetime.end.p0(i64 8, ptr nonnull %5) #22
  call void @llvm.lifetime.end.p0(i64 8, ptr nonnull %4) #22
  resume { ptr, i32 } %17

24:                                               ; preds = %11
  %25 = fcmp oeq double %12, 0.000000e+00
  br i1 %25, label %.loopexit, label %.preheader

.preheader:                                       ; preds = %24, %.preheader
  %26 = phi double [ %30, %.preheader ], [ %12, %24 ]
  %.026 = phi i32 [ %32, %.preheader ], [ 0, %24 ]
  %.11925 = phi double [ %29, %.preheader ], [ %.018, %24 ]
  %27 = load double, ptr %5, align 8, !tbaa !29
  %28 = fdiv double %26, %27
  %29 = fsub double %.11925, %28
  call void @_ZN2cv8ximgproc14ContourFitting6fAlphaEdRdS2_(ptr noundef nonnull align 8 dereferenceable(136) %0, double noundef %29, ptr noundef nonnull align 8 dereferenceable(8) %4, ptr noundef nonnull align 8 dereferenceable(8) %5)
  %30 = load double, ptr %4, align 8, !tbaa !29
  %31 = fcmp oeq double %30, 0.000000e+00
  %32 = add nuw nsw i32 %.026, 1
  %exitcond = icmp eq i32 %32, 5
  %or.cond = select i1 %31, i1 true, i1 %exitcond
  br i1 %or.cond, label %.loopexit, label %.preheader, !llvm.loop !41

.loopexit:                                        ; preds = %.preheader, %24
  %.017 = phi double [ %.018, %24 ], [ %29, %.preheader ]
  call void @llvm.lifetime.end.p0(i64 8, ptr nonnull %5) #22
  call void @llvm.lifetime.end.p0(i64 8, ptr nonnull %4) #22
  ret double %.017
}